target datalayout = "e-m:e-p270:32:32-p271:32:32-p272:64:64-i64:64-i128:128-f80:128-n8:16:32:64-S128"
target triple = "x86_64-unknown-linux-gnu"

%"class.llvh::ArrayRef" = type { ptr, i64 }
%"struct.hermes::hbc::BytecodeFileHeader" = type { i64, i32, [20 x i8], i32, i32, i32, i32, i32, i32, i32, i32, i32, i32, i32, i32, i32, i32, i32, i32, i32, i32, i32, %"union.hermes::hbc::BytecodeOptions", [19 x i8] }
%"union.hermes::hbc::BytecodeOptions" = type { %struct.anon }
%struct.anon = type { i8 }
%"class.llvh::ArrayRef.2" = type { ptr, i64 }
%"class.llvh::ArrayRef.3" = type { ptr, i64 }
%"class.llvh::ArrayRef.4" = type { ptr, i64 }
%"class.llvh::ArrayRef.5" = type { ptr, i64 }
%"class.llvh::ArrayRef.6" = type { ptr, i64 }
%"class.llvh::ArrayRef.7" = type { ptr, i64 }
%"class.std::__cxx11::basic_string" = type { %"struct.std::__cxx11::basic_string<char>::_Alloc_hider", i64, %union.anon }
%"struct.std::__cxx11::basic_string<char>::_Alloc_hider" = type { ptr }
%union.anon = type { i64, [8 x i8] }
%"class.hermes::hbc::BCProviderBase" = type { ptr, %"union.hermes::hbc::BytecodeOptions", i32, i32, i32, %"class.llvh::ArrayRef.2", %"class.llvh::ArrayRef.3", %"class.llvh::ArrayRef", %"class.llvh::ArrayRef", %"class.llvh::ArrayRef", %"class.llvh::ArrayRef", %"class.llvh::ArrayRef.5", %"class.llvh::ArrayRef", %"class.llvh::ArrayRef.6", %"class.llvh::ArrayRef", i32, %"class.llvh::ArrayRef.7", %"class.llvh::ArrayRef.7", %"class.llvh::ArrayRef.7", ptr, %"class.std::__cxx11::basic_string" }
%"class.hermes::hbc::BCProviderFromBuffer" = type { %"class.hermes::hbc::BCProviderBase", %"class.std::unique_ptr", ptr, ptr, ptr, %"class.llvh::ArrayRef.4", i32, [4 x i8], %"class.llvh::Optional.31", %"struct.std::atomic", %"class.std::unique_ptr.36", ptr }
%"class.std::unique_ptr" = type { %"struct.std::__uniq_ptr_data" }
%"struct.std::__uniq_ptr_data" = type { %"class.std::__uniq_ptr_impl" }
%"class.std::__uniq_ptr_impl" = type { %"class.std::tuple" }
%"class.std::tuple" = type { %"struct.std::_Tuple_impl" }
%"struct.std::_Tuple_impl" = type { %"struct.std::_Head_base.30" }
%"struct.std::_Head_base.30" = type { ptr }
%"class.llvh::Optional.31" = type { %"struct.llvh::optional_detail::OptionalStorage.32" }
%"struct.llvh::optional_detail::OptionalStorage.32" = type { %"struct.llvh::AlignedCharArrayUnion.33", i8, [7 x i8] }
%"struct.llvh::AlignedCharArrayUnion.33" = type { %"struct.llvh::AlignedCharArray.34" }
%"struct.llvh::AlignedCharArray.34" = type { [8 x i8] }
%"struct.std::atomic" = type { %"struct.std::__atomic_base" }
%"struct.std::__atomic_base" = type { i8 }
%"class.std::unique_ptr.36" = type { %"struct.std::__uniq_ptr_data.37" }
%"struct.std::__uniq_ptr_data.37" = type { %"class.std::__uniq_ptr_impl.38" }
%"class.std::__uniq_ptr_impl.38" = type { %"class.std::tuple.39" }
%"class.std::tuple.39" = type { %"struct.std::_Tuple_impl.40" }
%"struct.std::_Tuple_impl.40" = type { %"struct.std::_Head_base.43" }
%"struct.std::_Head_base.43" = type { ptr }
%"class.hermes::Buffer" = type { ptr, ptr, i64 }

; Function Attrs: mustprogress nounwind uwtable
define linkonce_odr noundef nonnull align 8 dereferenceable(8) ptr @_ZNSt10_Head_baseILm0EPKN6hermes6BufferELb0EE7_M_headERKS4_(ptr noundef nonnull align 8 dereferenceable(8) %__b) #0 comdat align 2 {
entry:
  %__b.addr = alloca ptr, align 8
  store ptr %__b, ptr %__b.addr, align 8
  %0 = load ptr, ptr %__b.addr, align 8
  %_M_head_impl = getelementptr inbounds %"struct.std::_Head_base.30", ptr %0, i32 0, i32 0
  ret ptr %_M_head_impl
}

; Function Attrs: mustprogress nounwind uwtable
define linkonce_odr noundef nonnull align 8 dereferenceable(8) ptr @_ZNSt11_Tuple_implILm0EJPKN6hermes6BufferESt14default_deleteIS2_EEE7_M_headERKS6_(ptr noundef nonnull align 8 dereferenceable(8) %__t) #0 comdat align 2 {
entry:
  %__t.addr = alloca ptr, align 8
  store ptr %__t, ptr %__t.addr, align 8
  %0 = load ptr, ptr %__t.addr, align 8
  %call = call noundef nonnull align 8 dereferenceable(8) ptr @_ZNSt10_Head_baseILm0EPKN6hermes6BufferELb0EE7_M_headERKS4_(ptr noundef nonnull align 8 dereferenceable(8) %0) #12
  ret ptr %call
}

; Function Attrs: mustprogress nounwind uwtable
define linkonce_odr noundef nonnull align 8 dereferenceable(8) ptr @_ZSt12__get_helperILm0EPKN6hermes6BufferEJSt14default_deleteIS2_EEERKT0_RKSt11_Tuple_implIXT_EJS6_DpT1_EE(ptr noundef nonnull align 8 dereferenceable(8) %__t) #0 comdat {
entry:
  %__t.addr = alloca ptr, align 8
  store ptr %__t, ptr %__t.addr, align 8
  %0 = load ptr, ptr %__t.addr, align 8
  %call = call noundef nonnull align 8 dereferenceable(8) ptr @_ZNSt11_Tuple_implILm0EJPKN6hermes6BufferESt14default_deleteIS2_EEE7_M_headERKS6_(ptr noundef nonnull align 8 dereferenceable(8) %0) #12
  ret ptr %call
}

; Function Attrs: mustprogress nounwind uwtable
define linkonce_odr noundef nonnull align 8 dereferenceable(8) ptr @_ZSt3getILm0EJPKN6hermes6BufferESt14default_deleteIS2_EEERKNSt13tuple_elementIXT_ESt5tupleIJDpT0_EEE4typeERKSA_(ptr noundef nonnull align 8 dereferenceable(8) %__t) #0 comdat {
entry:
  %__t.addr = alloca ptr, align 8
  store ptr %__t, ptr %__t.addr, align 8
  %0 = load ptr, ptr %__t.addr, align 8
  %call = call noundef nonnull align 8 dereferenceable(8) ptr @_ZSt12__get_helperILm0EPKN6hermes6BufferEJSt14default_deleteIS2_EEERKT0_RKSt11_Tuple_implIXT_EJS6_DpT1_EE(ptr noundef nonnull align 8 dereferenceable(8) %0) #12
  ret ptr %call
}

; Function Attrs: mustprogress nounwind uwtable
define internal noundef ptr @_ZN6hermes3hbc12_GLOBAL__N_114alignCheckCastINS0_18BytecodeFileHeaderEEEPKT_PKh(ptr noundef %buf) #0 {
entry:
  %buf.addr = alloca ptr, align 8
  store ptr %buf, ptr %buf.addr, align 8
  %0 = load ptr, ptr %buf.addr, align 8
  ret ptr %0
}

; Function Attrs: mustprogress nounwind uwtable
define linkonce_odr noundef ptr @_ZNKSt15__uniq_ptr_implIKN6hermes6BufferESt14default_deleteIS2_EE6_M_ptrEv(ptr noundef nonnull align 8 dereferenceable(8) %this) #0 comdat align 2 {
entry:
  %this.addr = alloca ptr, align 8
  store ptr %this, ptr %this.addr, align 8
  %this1 = load ptr, ptr %this.addr, align 8
  %_M_t = getelementptr inbounds %"class.std::__uniq_ptr_impl", ptr %this1, i32 0, i32 0
  %call = call noundef nonnull align 8 dereferenceable(8) ptr @_ZSt3getILm0EJPKN6hermes6BufferESt14default_deleteIS2_EEERKNSt13tuple_elementIXT_ESt5tupleIJDpT0_EEE4typeERKSA_(ptr noundef nonnull align 8 dereferenceable(8) %_M_t) #12
  %0 = load ptr, ptr %call, align 8
  ret ptr %0
}

; Function Attrs: mustprogress nounwind uwtable
define linkonce_odr hidden void @_ZN4llvh8ArrayRefIhEC2EPKhS3_(ptr noundef nonnull align 8 dereferenceable(16) %this, ptr noundef %begin, ptr noundef %end) unnamed_addr #0 comdat align 2 {
entry:
  %this.addr = alloca ptr, align 8
  %begin.addr = alloca ptr, align 8
  %end.addr = alloca ptr, align 8
  store ptr %this, ptr %this.addr, align 8
  store ptr %begin, ptr %begin.addr, align 8
  store ptr %end, ptr %end.addr, align 8
  %this1 = load ptr, ptr %this.addr, align 8
  %Data = getelementptr inbounds %"class.llvh::ArrayRef", ptr %this1, i32 0, i32 0
  %0 = load ptr, ptr %begin.addr, align 8
  store ptr %0, ptr %Data, align 8
  %Length = getelementptr inbounds %"class.llvh::ArrayRef", ptr %this1, i32 0, i32 1
  %1 = load ptr, ptr %end.addr, align 8
  %2 = load ptr, ptr %begin.addr, align 8
  %sub.ptr.lhs.cast = ptrtoint ptr %1 to i64
  %sub.ptr.rhs.cast = ptrtoint ptr %2 to i64
  %sub.ptr.sub = sub i64 %sub.ptr.lhs.cast, %sub.ptr.rhs.cast
  store i64 %sub.ptr.sub, ptr %Length, align 8
  ret void
}

; Function Attrs: mustprogress nounwind uwtable
define linkonce_odr hidden noundef i64 @_ZNK4llvh8ArrayRefIhE4sizeEv(ptr noundef nonnull align 8 dereferenceable(16) %this) #0 comdat align 2 {
entry:
  %this.addr = alloca ptr, align 8
  store ptr %this, ptr %this.addr, align 8
  %this1 = load ptr, ptr %this.addr, align 8
  %Length = getelementptr inbounds %"class.llvh::ArrayRef", ptr %this1, i32 0, i32 1
  %0 = load i64, ptr %Length, align 8
  ret i64 %0
}

; Function Attrs: mustprogress nounwind uwtable
define internal noundef ptr @_ZN6hermes3hbc12_GLOBAL__N_18castDataINS0_18BytecodeFileHeaderEEEPKT_RPKh(ptr noundef nonnull align 8 dereferenceable(8) %buf) #0 {
entry:
  %buf.addr = alloca ptr, align 8
  %ret = alloca ptr, align 8
  store ptr %buf, ptr %buf.addr, align 8
  %0 = load ptr, ptr %buf.addr, align 8
  %1 = load ptr, ptr %0, align 8
  %call = call noundef ptr @_ZN6hermes3hbc12_GLOBAL__N_114alignCheckCastINS0_18BytecodeFileHeaderEEEPKT_PKh(ptr noundef %1)
  store ptr %call, ptr %ret, align 8
  %2 = load ptr, ptr %buf.addr, align 8
  %3 = load ptr, ptr %2, align 8
  %add.ptr = getelementptr inbounds i8, ptr %3, i64 128
  store ptr %add.ptr, ptr %2, align 8
  %4 = load ptr, ptr %ret, align 8
  ret ptr %4
}

; Function Attrs: mustprogress nounwind uwtable
define linkonce_odr hidden noundef ptr @_ZNK4llvh8ArrayRefIhE4dataEv(ptr noundef nonnull align 8 dereferenceable(16) %this) #0 comdat align 2 {
entry:
  %this.addr = alloca ptr, align 8
  store ptr %this, ptr %this.addr, align 8
  %this1 = load ptr, ptr %this.addr, align 8
  %Data = getelementptr inbounds %"class.llvh::ArrayRef", ptr %this1, i32 0, i32 0
  %0 = load ptr, ptr %Data, align 8
  ret ptr %0
}

; Function Attrs: mustprogress nounwind uwtable
define linkonce_odr noundef ptr @_ZNKSt10unique_ptrIKN6hermes6BufferESt14default_deleteIS2_EE3getEv(ptr noundef nonnull align 8 dereferenceable(8) %this) #0 comdat align 2 {
entry:
  %this.addr = alloca ptr, align 8
  store ptr %this, ptr %this.addr, align 8
  %this1 = load ptr, ptr %this.addr, align 8
  %_M_t = getelementptr inbounds %"class.std::unique_ptr", ptr %this1, i32 0, i32 0
  %call = call noundef ptr @_ZNKSt15__uniq_ptr_implIKN6hermes6BufferESt14default_deleteIS2_EE6_M_ptrEv(ptr noundef nonnull align 8 dereferenceable(8) %_M_t) #12
  ret ptr %call
}

; Function Attrs: mustprogress nounwind uwtable
define hidden { ptr, i64 } @_ZN6hermes3hbc20BCProviderFromBuffer23getEpilogueFromBytecodeEN4llvh8ArrayRefIhEE(ptr %buffer.coerce0, i64 %buffer.coerce1) #0 align 2 {
entry:
  %retval = alloca %"class.llvh::ArrayRef", align 8
  %buffer = alloca %"class.llvh::ArrayRef", align 8
  %p = alloca ptr, align 8
  %fileHeader = alloca ptr, align 8
  %begin = alloca ptr, align 8
  %end = alloca ptr, align 8
  %0 = getelementptr inbounds { ptr, i64 }, ptr %buffer, i32 0, i32 0
  store ptr %buffer.coerce0, ptr %0, align 8
  %1 = getelementptr inbounds { ptr, i64 }, ptr %buffer, i32 0, i32 1
  store i64 %buffer.coerce1, ptr %1, align 8
  %call = call noundef ptr @_ZNK4llvh8ArrayRefIhE4dataEv(ptr noundef nonnull align 8 dereferenceable(16) %buffer)
  store ptr %call, ptr %p, align 8
  %call1 = call noundef ptr @_ZN6hermes3hbc12_GLOBAL__N_18castDataINS0_18BytecodeFileHeaderEEEPKT_RPKh(ptr noundef nonnull align 8 dereferenceable(8) %p)
  store ptr %call1, ptr %fileHeader, align 8
  %call2 = call noundef ptr @_ZNK4llvh8ArrayRefIhE4dataEv(ptr noundef nonnull align 8 dereferenceable(16) %buffer)
  %2 = load ptr, ptr %fileHeader, align 8
  %fileLength = getelementptr inbounds %"struct.hermes::hbc::BytecodeFileHeader", ptr %2, i32 0, i32 3
  %3 = load i32, ptr %fileLength, align 1
  %idx.ext = zext i32 %3 to i64
  %add.ptr = getelementptr inbounds i8, ptr %call2, i64 %idx.ext
  store ptr %add.ptr, ptr %begin, align 8
  %call3 = call noundef ptr @_ZNK4llvh8ArrayRefIhE4dataEv(ptr noundef nonnull align 8 dereferenceable(16) %buffer)
  %call4 = call noundef i64 @_ZNK4llvh8ArrayRefIhE4sizeEv(ptr noundef nonnull align 8 dereferenceable(16) %buffer)
  %add.ptr5 = getelementptr inbounds i8, ptr %call3, i64 %call4
  store ptr %add.ptr5, ptr %end, align 8
  %4 = load ptr, ptr %begin, align 8
  %5 = load ptr, ptr %end, align 8
  call void @_ZN4llvh8ArrayRefIhEC2EPKhS3_(ptr noundef nonnull align 8 dereferenceable(16) %retval, ptr noundef %4, ptr noundef %5)
  %6 = load { ptr, i64 }, ptr %retval, align 8
  ret { ptr, i64 } %6
}

; Function Attrs: mustprogress nounwind uwtable
define linkonce_odr hidden void @_ZN4llvh8ArrayRefIhEC2EPKhm(ptr noundef nonnull align 8 dereferenceable(16) %this, ptr noundef %data, i64 noundef %length) unnamed_addr #0 comdat align 2 {
entry:
  %this.addr = alloca ptr, align 8
  %data.addr = alloca ptr, align 8
  %length.addr = alloca i64, align 8
  store ptr %this, ptr %this.addr, align 8
  store ptr %data, ptr %data.addr, align 8
  store i64 %length, ptr %length.addr, align 8
  %this1 = load ptr, ptr %this.addr, align 8
  %Data = getelementptr inbounds %"class.llvh::ArrayRef", ptr %this1, i32 0, i32 0
  %0 = load ptr, ptr %data.addr, align 8
  store ptr %0, ptr %Data, align 8
  %Length = getelementptr inbounds %"class.llvh::ArrayRef", ptr %this1, i32 0, i32 1
  %1 = load i64, ptr %length.addr, align 8
  store i64 %1, ptr %Length, align 8
  ret void
}

; Function Attrs: mustprogress nounwind uwtable
define linkonce_odr noundef i64 @_ZNK6hermes6Buffer4sizeEv(ptr noundef nonnull align 8 dereferenceable(24) %this) #0 comdat align 2 {
entry:
  %this.addr = alloca ptr, align 8
  store ptr %this, ptr %this.addr, align 8
  %this1 = load ptr, ptr %this.addr, align 8
  %size_ = getelementptr inbounds %"class.hermes::Buffer", ptr %this1, i32 0, i32 2
  %0 = load i64, ptr %size_, align 8
  ret i64 %0
}

; Function Attrs: mustprogress nounwind uwtable
define linkonce_odr noundef ptr @_ZNKSt10unique_ptrIKN6hermes6BufferESt14default_deleteIS2_EEptEv(ptr noundef nonnull align 8 dereferenceable(8) %this) #0 comdat align 2 {
entry:
  %this.addr = alloca ptr, align 8
  store ptr %this, ptr %this.addr, align 8
  %this1 = load ptr, ptr %this.addr, align 8
  %call = call noundef ptr @_ZNKSt10unique_ptrIKN6hermes6BufferESt14default_deleteIS2_EE3getEv(ptr noundef nonnull align 8 dereferenceable(8) %this1) #12
  ret ptr %call
}

; Function Attrs: mustprogress nounwind uwtable
define hidden { ptr, i64 } @_ZNK6hermes3hbc20BCProviderFromBuffer11getEpilogueEv(ptr noundef nonnull align 8 dereferenceable(376) %this) unnamed_addr #0 align 2 {
entry:
  %retval = alloca %"class.llvh::ArrayRef", align 8
  %this.addr = alloca ptr, align 8
  %agg.tmp = alloca %"class.llvh::ArrayRef", align 8
  store ptr %this, ptr %this.addr, align 8
  %this1 = load ptr, ptr %this.addr, align 8
  %bufferPtr_ = getelementptr inbounds %"class.hermes::hbc::BCProviderFromBuffer", ptr %this1, i32 0, i32 2
  %0 = load ptr, ptr %bufferPtr_, align 8
  %buffer_ = getelementptr inbounds %"class.hermes::hbc::BCProviderFromBuffer", ptr %this1, i32 0, i32 1
  %call = call noundef ptr @_ZNKSt10unique_ptrIKN6hermes6BufferESt14default_deleteIS2_EEptEv(ptr noundef nonnull align 8 dereferenceable(8) %buffer_) #12
  %call2 = call noundef i64 @_ZNK6hermes6Buffer4sizeEv(ptr noundef nonnull align 8 dereferenceable(24) %call)
  call void @_ZN4llvh8ArrayRefIhEC2EPKhm(ptr noundef nonnull align 8 dereferenceable(16) %agg.tmp, ptr noundef %0, i64 noundef %call2)
  %1 = getelementptr inbounds { ptr, i64 }, ptr %agg.tmp, i32 0, i32 0
  %2 = load ptr, ptr %1, align 8
  %3 = getelementptr inbounds { ptr, i64 }, ptr %agg.tmp, i32 0, i32 1
  %4 = load i64, ptr %3, align 8
  %call3 = call { ptr, i64 } @_ZN6hermes3hbc20BCProviderFromBuffer23getEpilogueFromBytecodeEN4llvh8ArrayRefIhEE(ptr %2, i64 %4)
  %5 = getelementptr inbounds { ptr, i64 }, ptr %retval, i32 0, i32 0
  %6 = extractvalue { ptr, i64 } %call3, 0
  store ptr %6, ptr %5, align 8
  %7 = getelementptr inbounds { ptr, i64 }, ptr %retval, i32 0, i32 1
  %8 = extractvalue { ptr, i64 } %call3, 1
  store i64 %8, ptr %7, align 8
  %9 = load { ptr, i64 }, ptr %retval, align 8
  ret { ptr, i64 } %9
}