; Function Attrs: mustprogress nofree norecurse nosync nounwind willreturn memory(read, inaccessiblemem: none) uwtable
define hidden { ptr, i64 } @_ZNK6hermes3hbc20BCProviderFromBuffer11getEpilogueEv(ptr nocapture noundef nonnull readonly align 8 dereferenceable(376) %this) unnamed_addr #6 align 2 {
entry:
  %bufferPtr_ = getelementptr inbounds i8, ptr %this, i64 288
  %0 = load ptr, ptr %bufferPtr_, align 8
  %buffer_ = getelementptr inbounds i8, ptr %this, i64 280
  %1 = load ptr, ptr %buffer_, align 8
  %size_.i = getelementptr inbounds i8, ptr %1, i64 16
  %2 = load i64, ptr %size_.i, align 8
  %fileLength.i = getelementptr inbounds i8, ptr %0, i64 32
  %3 = load i32, ptr %fileLength.i, align 1
  %idx.ext.i = zext i32 %3 to i64
  %add.ptr.i = getelementptr inbounds i8, ptr %0, i64 %idx.ext.i
  %add.ptr5.i = getelementptr inbounds i8, ptr %0, i64 %2
  %sub.ptr.lhs.cast.i.i = ptrtoint ptr %add.ptr5.i to i64
  %sub.ptr.rhs.cast.i.i = ptrtoint ptr %add.ptr.i to i64
  %sub.ptr.sub.i.i = sub i64 %sub.ptr.lhs.cast.i.i, %sub.ptr.rhs.cast.i.i
  %.fca.0.insert.i = insertvalue { ptr, i64 } poison, ptr %add.ptr.i, 0
  %.fca.1.insert.i = insertvalue { ptr, i64 } %.fca.0.insert.i, i64 %sub.ptr.sub.i.i, 1
  ret { ptr, i64 } %.fca.1.insert.i
}